; Function Attrs: nounwind uwtable
define hidden ptr @X509at_add1_attr_by_OBJ(ptr noundef captures(address_is_null) %0, ptr noundef %1, i32 noundef %2, ptr noundef %3, i32 noundef %4) local_unnamed_addr #0 {
  %6 = tail call ptr @X509_ATTRIBUTE_new() #4
  %7 = icmp eq ptr %6, null
  br i1 %7, label %8, label %9

8:                                                ; preds = %5
  tail call void @ERR_put_error(i32 noundef 11, i32 noundef 0, i32 noundef 65, ptr noundef nonnull @.str, i32 noundef 239) #4
  br label %X509_ATTRIBUTE_create_by_OBJ.exit.thread

9:                                                ; preds = %5
  %10 = icmp eq ptr %1, null
  br i1 %10, label %X509_ATTRIBUTE_set1_object.exit.thread.i, label %X509_ATTRIBUTE_set1_object.exit.i

X509_ATTRIBUTE_set1_object.exit.i:                ; preds = %9
  %11 = load ptr, ptr %6, align 8, !tbaa !6
  tail call void @ASN1_OBJECT_free(ptr noundef %11) #4
  %12 = tail call ptr @OBJ_dup(ptr noundef nonnull %1) #4
  store ptr %12, ptr %6, align 8, !tbaa !6
  %.not27.i = icmp eq ptr %12, null
  br i1 %.not27.i, label %X509_ATTRIBUTE_set1_object.exit.thread.i, label %13

13:                                               ; preds = %X509_ATTRIBUTE_set1_object.exit.i
  %14 = tail call i32 @X509_ATTRIBUTE_set1_data(ptr noundef nonnull %6, i32 noundef %2, ptr noundef %3, i32 noundef %4)
  %.not22.i = icmp eq i32 %14, 0
  br i1 %.not22.i, label %X509_ATTRIBUTE_set1_object.exit.thread.i, label %X509_ATTRIBUTE_create_by_OBJ.exit

X509_ATTRIBUTE_set1_object.exit.thread.i:         ; preds = %13, %X509_ATTRIBUTE_set1_object.exit.i, %9
  tail call void @X509_ATTRIBUTE_free(ptr noundef nonnull %6) #4
  br label %X509_ATTRIBUTE_create_by_OBJ.exit.thread

X509_ATTRIBUTE_create_by_OBJ.exit:                ; preds = %13
  %15 = tail call ptr @X509at_add1_attr(ptr noundef %0, ptr noundef nonnull %6)
  tail call void @X509_ATTRIBUTE_free(ptr noundef nonnull %6) #4
  br label %X509_ATTRIBUTE_create_by_OBJ.exit.thread

X509_ATTRIBUTE_create_by_OBJ.exit.thread:         ; preds = %X509_ATTRIBUTE_set1_object.exit.thread.i, %8, %X509_ATTRIBUTE_create_by_OBJ.exit
  %.0 = phi ptr [ %15, %X509_ATTRIBUTE_create_by_OBJ.exit ], [ null, %8 ], [ null, %X509_ATTRIBUTE_set1_object.exit.thread.i ]
  ret ptr %.0
}